; Function Attrs: nounwind uwtable
define hidden i32 @ctl_bymibname(ptr noundef %tsd, ptr noundef %mib, i64 noundef %miblen, ptr noundef %name, ptr nocapture noundef %miblenp, ptr noundef %oldp, ptr noundef %oldlenp, ptr noundef %newp, i64 noundef %newlen) local_unnamed_addr #0 {
entry:
  %node = alloca ptr, align 8
  %.b16 = load i1, ptr @ctl_initialized, align 1
  br i1 %.b16, label %if.end, label %land.lhs.true

land.lhs.true:                                    ; preds = %entry
  %call = tail call fastcc zeroext i1 @ctl_init(ptr noundef %tsd)
  br i1 %call, label %label_return, label %if.end

if.end:                                           ; preds = %land.lhs.true, %entry
  %cmp18.not.i = icmp eq i64 %miblen, 0
  br i1 %cmp18.not.i, label %if.end4.thread, label %do.end2.i

if.end4.thread:                                   ; preds = %if.end
  store ptr @super_root_node, ptr %node, align 8
  br label %lor.lhs.false

do.end2.i:                                        ; preds = %if.end, %for.inc.i
  %i.020.i = phi i64 [ %inc.i, %for.inc.i ], [ 0, %if.end ]
  %node.019.i = phi ptr [ %node.1.i, %for.inc.i ], [ @super_root_node, %if.end ]
  %children.i = getelementptr inbounds i8, ptr %node.019.i, i64 24
  %0 = load ptr, ptr %children.i, align 8
  %1 = load i8, ptr %0, align 1
  %2 = and i8 %1, 1
  %tobool.not.i.i = icmp eq i8 %2, 0
  %arrayidx10.i = getelementptr inbounds i64, ptr %mib, i64 %i.020.i
  %3 = load i64, ptr %arrayidx10.i, align 8
  br i1 %tobool.not.i.i, label %if.else.i, label %if.then.i

if.then.i:                                        ; preds = %do.end2.i
  %nchildren.i = getelementptr inbounds i8, ptr %node.019.i, i64 16
  %4 = load i64, ptr %nchildren.i, align 8
  %cmp4.not.i = icmp ugt i64 %4, %3
  br i1 %cmp4.not.i, label %if.end.i, label %label_return

if.end.i:                                         ; preds = %if.then.i
  %arrayidx.i.i = getelementptr inbounds %struct.ctl_named_node_s, ptr %0, i64 %3
  br label %for.inc.i

if.else.i:                                        ; preds = %do.end2.i
  %index.i = getelementptr inbounds i8, ptr %0, i64 8
  %5 = load ptr, ptr %index.i, align 8
  %call11.i = tail call ptr %5(ptr noundef %tsd, ptr noundef nonnull %mib, i64 noundef %miblen, i64 noundef %3) #14
  %cmp12.i = icmp eq ptr %call11.i, null
  br i1 %cmp12.i, label %label_return, label %for.inc.i

for.inc.i:                                        ; preds = %if.else.i, %if.end.i
  %node.1.i = phi ptr [ %arrayidx.i.i, %if.end.i ], [ %call11.i, %if.else.i ]
  %inc.i = add nuw i64 %i.020.i, 1
  %exitcond.not.i = icmp eq i64 %inc.i, %miblen
  br i1 %exitcond.not.i, label %if.end4, label %do.end2.i, !llvm.loop !10

if.end4:                                          ; preds = %for.inc.i
  store ptr %node.1.i, ptr %node, align 8
  %cmp5 = icmp eq ptr %node.1.i, null
  br i1 %cmp5, label %label_return, label %lor.lhs.false

lor.lhs.false:                                    ; preds = %if.end4.thread, %if.end4
  %node.0.lcssa.i21 = phi ptr [ @super_root_node, %if.end4.thread ], [ %node.1.i, %if.end4 ]
  %ctl = getelementptr inbounds i8, ptr %node.0.lcssa.i21, i64 32
  %6 = load ptr, ptr %ctl, align 8
  %cmp6.not = icmp eq ptr %6, null
  br i1 %cmp6.not, label %do.end10, label %label_return

do.end10:                                         ; preds = %lor.lhs.false
  %7 = load i64, ptr %miblenp, align 8
  %sub = sub i64 %7, %miblen
  store i64 %sub, ptr %miblenp, align 8
  %add.ptr = getelementptr inbounds i64, ptr %mib, i64 %miblen
  %call12 = call fastcc i32 @ctl_lookup(ptr noundef %tsd, ptr noundef nonnull %node.0.lcssa.i21, ptr noundef %name, ptr noundef nonnull %node, ptr noundef %add.ptr, ptr noundef nonnull %miblenp), !range !5
  %8 = load i64, ptr %miblenp, align 8
  %add = add i64 %8, %miblen
  store i64 %add, ptr %miblenp, align 8
  %cmp13.not = icmp eq i32 %call12, 0
  br i1 %cmp13.not, label %if.end15, label %label_return

if.end15:                                         ; preds = %do.end10
  %9 = load ptr, ptr %node, align 8
  %cmp16.not = icmp eq ptr %9, null
  br i1 %cmp16.not, label %label_return, label %land.lhs.true17

land.lhs.true17:                                  ; preds = %if.end15
  %ctl18 = getelementptr inbounds i8, ptr %9, i64 32
  %10 = load ptr, ptr %ctl18, align 8
  %tobool19.not = icmp eq ptr %10, null
  br i1 %tobool19.not, label %label_return, label %if.then20

if.then20:                                        ; preds = %land.lhs.true17
  %call22 = call i32 %10(ptr noundef %tsd, ptr noundef %mib, i64 noundef %add, ptr noundef %oldp, ptr noundef %oldlenp, ptr noundef %newp, i64 noundef %newlen) #14
  br label %label_return

label_return:                                     ; preds = %if.else.i, %if.then.i, %if.end15, %land.lhs.true17, %if.end4, %lor.lhs.false, %land.lhs.true, %if.then20, %do.end10
  %ret.0 = phi i32 [ %call12, %do.end10 ], [ %call22, %if.then20 ], [ 11, %land.lhs.true ], [ 2, %lor.lhs.false ], [ 2, %if.end4 ], [ 2, %land.lhs.true17 ], [ 2, %if.end15 ], [ 2, %if.then.i ], [ 2, %if.else.i ]
  ret i32 %ret.0
}